; Function Attrs: mustprogress uwtable
define void @_ZN32pxrInternal_v0_24__pxrReserved__41UsdProcImagingGenerativeProceduralAdapter21GetImagingSubprimTypeERKNS_7UsdPrimERKNS_7TfTokenE(ptr dead_on_unwind noalias writable sret(%"class.pxrInternal_v0_24__pxrReserved__::TfToken") align 8 %0, ptr nocapture noundef nonnull readnone align 8 dereferenceable(32) %1, ptr noundef nonnull align 8 dereferenceable(32) %2, ptr nocapture noundef nonnull readonly align 8 dereferenceable(8) %3) unnamed_addr #0 align 2 {
  %5 = load ptr, ptr %3, align 8
  %6 = icmp eq ptr %5, null
  br i1 %6, label %7, label %8

7:                                                ; preds = %4
  tail call void @_ZN32pxrInternal_v0_24__pxrReserved__41UsdProcImagingGenerativeProceduralAdapter17_GetHydraPrimTypeERKNS_7UsdPrimE(ptr dead_on_unwind writable sret(%"class.pxrInternal_v0_24__pxrReserved__::TfToken") align 8 %0, ptr nonnull align 8 poison, ptr noundef nonnull align 8 dereferenceable(32) %2)
  br label %9

8:                                                ; preds = %4
  store ptr null, ptr %0, align 8
  br label %9

9:                                                ; preds = %8, %7
  ret void
}